ARM GAS  C:\Users\Adam\AppData\Local\Temp\cc5HEZBF.s 			page 1


   1              		.cpu cortex-m4
   2              		.arch armv7e-m
   3              		.fpu fpv4-sp-d16
   4              		.eabi_attribute 27, 1
   5              		.eabi_attribute 28, 1
   6              		.eabi_attribute 20, 1
   7              		.eabi_attribute 21, 1
   8              		.eabi_attribute 23, 3
   9              		.eabi_attribute 24, 1
  10              		.eabi_attribute 25, 1
  11              		.eabi_attribute 26, 1
  12              		.eabi_attribute 30, 1
  13              		.eabi_attribute 34, 1
  14              		.eabi_attribute 18, 4
  15              		.file	"usb_otg.c"
  16              		.text
  17              	.Ltext0:
  18              		.cfi_sections	.debug_frame
  19              		.file 1 "Core/Src/usb_otg.c"
  20              		.section	.text.MX_USB_OTG_FS_PCD_Init,"ax",%progbits
  21              		.align	1
  22              		.global	MX_USB_OTG_FS_PCD_Init
  23              		.syntax unified
  24              		.thumb
  25              		.thumb_func
  27              	MX_USB_OTG_FS_PCD_Init:
  28              	.LFB130:
   1:Core/Src/usb_otg.c **** /* USER CODE BEGIN Header */
   2:Core/Src/usb_otg.c **** /**
   3:Core/Src/usb_otg.c ****   ******************************************************************************
   4:Core/Src/usb_otg.c ****   * @file    usb_otg.c
   5:Core/Src/usb_otg.c ****   * @brief   This file provides code for the configuration
   6:Core/Src/usb_otg.c ****   *          of the USB_OTG instances.
   7:Core/Src/usb_otg.c ****   ******************************************************************************
   8:Core/Src/usb_otg.c ****   * @attention
   9:Core/Src/usb_otg.c ****   *
  10:Core/Src/usb_otg.c ****   * Copyright (c) 2022 STMicroelectronics.
  11:Core/Src/usb_otg.c ****   * All rights reserved.
  12:Core/Src/usb_otg.c ****   *
  13:Core/Src/usb_otg.c ****   * This software is licensed under terms that can be found in the LICENSE file
  14:Core/Src/usb_otg.c ****   * in the root directory of this software component.
  15:Core/Src/usb_otg.c ****   * If no LICENSE file comes with this software, it is provided AS-IS.
  16:Core/Src/usb_otg.c ****   *
  17:Core/Src/usb_otg.c ****   ******************************************************************************
  18:Core/Src/usb_otg.c ****   */
  19:Core/Src/usb_otg.c **** /* USER CODE END Header */
  20:Core/Src/usb_otg.c **** /* Includes ------------------------------------------------------------------*/
  21:Core/Src/usb_otg.c **** #include "usb_otg.h"
  22:Core/Src/usb_otg.c **** 
  23:Core/Src/usb_otg.c **** /* USER CODE BEGIN 0 */
  24:Core/Src/usb_otg.c **** 
  25:Core/Src/usb_otg.c **** /* USER CODE END 0 */
  26:Core/Src/usb_otg.c **** 
  27:Core/Src/usb_otg.c **** PCD_HandleTypeDef hpcd_USB_OTG_FS;
  28:Core/Src/usb_otg.c **** 
  29:Core/Src/usb_otg.c **** /* USB_OTG_FS init function */
  30:Core/Src/usb_otg.c **** 
ARM GAS  C:\Users\Adam\AppData\Local\Temp\cc5HEZBF.s 			page 2


  31:Core/Src/usb_otg.c **** void MX_USB_OTG_FS_PCD_Init(void)
  32:Core/Src/usb_otg.c **** {
  29              		.loc 1 32 1 view -0
  30              		.cfi_startproc
  31              		@ args = 0, pretend = 0, frame = 0
  32              		@ frame_needed = 0, uses_anonymous_args = 0
  33 0000 08B5     		push	{r3, lr}
  34              	.LCFI0:
  35              		.cfi_def_cfa_offset 8
  36              		.cfi_offset 3, -8
  37              		.cfi_offset 14, -4
  33:Core/Src/usb_otg.c **** 
  34:Core/Src/usb_otg.c ****   /* USER CODE BEGIN USB_OTG_FS_Init 0 */
  35:Core/Src/usb_otg.c **** 
  36:Core/Src/usb_otg.c ****   /* USER CODE END USB_OTG_FS_Init 0 */
  37:Core/Src/usb_otg.c **** 
  38:Core/Src/usb_otg.c ****   /* USER CODE BEGIN USB_OTG_FS_Init 1 */
  39:Core/Src/usb_otg.c **** 
  40:Core/Src/usb_otg.c ****   /* USER CODE END USB_OTG_FS_Init 1 */
  41:Core/Src/usb_otg.c ****   hpcd_USB_OTG_FS.Instance = USB_OTG_FS;
  38              		.loc 1 41 3 view .LVU1
  39              		.loc 1 41 28 is_stmt 0 view .LVU2
  40 0002 0C48     		ldr	r0, .L5
  41 0004 4FF0A043 		mov	r3, #1342177280
  42 0008 0360     		str	r3, [r0]
  42:Core/Src/usb_otg.c ****   hpcd_USB_OTG_FS.Init.dev_endpoints = 4;
  43              		.loc 1 42 3 is_stmt 1 view .LVU3
  44              		.loc 1 42 38 is_stmt 0 view .LVU4
  45 000a 0423     		movs	r3, #4
  46 000c 4360     		str	r3, [r0, #4]
  43:Core/Src/usb_otg.c ****   hpcd_USB_OTG_FS.Init.speed = PCD_SPEED_FULL;
  47              		.loc 1 43 3 is_stmt 1 view .LVU5
  48              		.loc 1 43 30 is_stmt 0 view .LVU6
  49 000e 0222     		movs	r2, #2
  50 0010 C260     		str	r2, [r0, #12]
  44:Core/Src/usb_otg.c ****   hpcd_USB_OTG_FS.Init.dma_enable = DISABLE;
  51              		.loc 1 44 3 is_stmt 1 view .LVU7
  52              		.loc 1 44 35 is_stmt 0 view .LVU8
  53 0012 0023     		movs	r3, #0
  54 0014 0361     		str	r3, [r0, #16]
  45:Core/Src/usb_otg.c ****   hpcd_USB_OTG_FS.Init.phy_itface = PCD_PHY_EMBEDDED;
  55              		.loc 1 45 3 is_stmt 1 view .LVU9
  56              		.loc 1 45 35 is_stmt 0 view .LVU10
  57 0016 8261     		str	r2, [r0, #24]
  46:Core/Src/usb_otg.c ****   hpcd_USB_OTG_FS.Init.Sof_enable = ENABLE;
  58              		.loc 1 46 3 is_stmt 1 view .LVU11
  59              		.loc 1 46 35 is_stmt 0 view .LVU12
  60 0018 0122     		movs	r2, #1
  61 001a C261     		str	r2, [r0, #28]
  47:Core/Src/usb_otg.c ****   hpcd_USB_OTG_FS.Init.low_power_enable = DISABLE;
  62              		.loc 1 47 3 is_stmt 1 view .LVU13
  63              		.loc 1 47 41 is_stmt 0 view .LVU14
  64 001c 0362     		str	r3, [r0, #32]
  48:Core/Src/usb_otg.c ****   hpcd_USB_OTG_FS.Init.lpm_enable = DISABLE;
  65              		.loc 1 48 3 is_stmt 1 view .LVU15
  66              		.loc 1 48 35 is_stmt 0 view .LVU16
  67 001e 4362     		str	r3, [r0, #36]
ARM GAS  C:\Users\Adam\AppData\Local\Temp\cc5HEZBF.s 			page 3


  49:Core/Src/usb_otg.c ****   hpcd_USB_OTG_FS.Init.vbus_sensing_enable = ENABLE;
  68              		.loc 1 49 3 is_stmt 1 view .LVU17
  69              		.loc 1 49 44 is_stmt 0 view .LVU18
  70 0020 C262     		str	r2, [r0, #44]
  50:Core/Src/usb_otg.c ****   hpcd_USB_OTG_FS.Init.use_dedicated_ep1 = DISABLE;
  71              		.loc 1 50 3 is_stmt 1 view .LVU19
  72              		.loc 1 50 42 is_stmt 0 view .LVU20
  73 0022 0363     		str	r3, [r0, #48]
  51:Core/Src/usb_otg.c ****   if (HAL_PCD_Init(&hpcd_USB_OTG_FS) != HAL_OK)
  74              		.loc 1 51 3 is_stmt 1 view .LVU21
  75              		.loc 1 51 7 is_stmt 0 view .LVU22
  76 0024 FFF7FEFF 		bl	HAL_PCD_Init
  77              	.LVL0:
  78              		.loc 1 51 6 view .LVU23
  79 0028 00B9     		cbnz	r0, .L4
  80              	.L1:
  52:Core/Src/usb_otg.c ****   {
  53:Core/Src/usb_otg.c ****     Error_Handler();
  54:Core/Src/usb_otg.c ****   }
  55:Core/Src/usb_otg.c ****   /* USER CODE BEGIN USB_OTG_FS_Init 2 */
  56:Core/Src/usb_otg.c **** 
  57:Core/Src/usb_otg.c ****   /* USER CODE END USB_OTG_FS_Init 2 */
  58:Core/Src/usb_otg.c **** 
  59:Core/Src/usb_otg.c **** }
  81              		.loc 1 59 1 view .LVU24
  82 002a 08BD     		pop	{r3, pc}
  83              	.L4:
  53:Core/Src/usb_otg.c ****   }
  84              		.loc 1 53 5 is_stmt 1 view .LVU25
  85 002c FFF7FEFF 		bl	Error_Handler
  86              	.LVL1:
  87              		.loc 1 59 1 is_stmt 0 view .LVU26
  88 0030 FBE7     		b	.L1
  89              	.L6:
  90 0032 00BF     		.align	2
  91              	.L5:
  92 0034 00000000 		.word	hpcd_USB_OTG_FS
  93              		.cfi_endproc
  94              	.LFE130:
  96              		.section	.text.HAL_PCD_MspInit,"ax",%progbits
  97              		.align	1
  98              		.global	HAL_PCD_MspInit
  99              		.syntax unified
 100              		.thumb
 101              		.thumb_func
 103              	HAL_PCD_MspInit:
 104              	.LVL2:
 105              	.LFB131:
  60:Core/Src/usb_otg.c **** 
  61:Core/Src/usb_otg.c **** void HAL_PCD_MspInit(PCD_HandleTypeDef* pcdHandle)
  62:Core/Src/usb_otg.c **** {
 106              		.loc 1 62 1 is_stmt 1 view -0
 107              		.cfi_startproc
 108              		@ args = 0, pretend = 0, frame = 32
 109              		@ frame_needed = 0, uses_anonymous_args = 0
 110              		.loc 1 62 1 is_stmt 0 view .LVU28
 111 0000 70B5     		push	{r4, r5, r6, lr}
ARM GAS  C:\Users\Adam\AppData\Local\Temp\cc5HEZBF.s 			page 4


 112              	.LCFI1:
 113              		.cfi_def_cfa_offset 16
 114              		.cfi_offset 4, -16
 115              		.cfi_offset 5, -12
 116              		.cfi_offset 6, -8
 117              		.cfi_offset 14, -4
 118 0002 88B0     		sub	sp, sp, #32
 119              	.LCFI2:
 120              		.cfi_def_cfa_offset 48
  63:Core/Src/usb_otg.c **** 
  64:Core/Src/usb_otg.c ****   GPIO_InitTypeDef GPIO_InitStruct = {0};
 121              		.loc 1 64 3 is_stmt 1 view .LVU29
 122              		.loc 1 64 20 is_stmt 0 view .LVU30
 123 0004 0023     		movs	r3, #0
 124 0006 0393     		str	r3, [sp, #12]
 125 0008 0493     		str	r3, [sp, #16]
 126 000a 0593     		str	r3, [sp, #20]
 127 000c 0693     		str	r3, [sp, #24]
 128 000e 0793     		str	r3, [sp, #28]
  65:Core/Src/usb_otg.c ****   if(pcdHandle->Instance==USB_OTG_FS)
 129              		.loc 1 65 3 is_stmt 1 view .LVU31
 130              		.loc 1 65 15 is_stmt 0 view .LVU32
 131 0010 0368     		ldr	r3, [r0]
 132              		.loc 1 65 5 view .LVU33
 133 0012 B3F1A04F 		cmp	r3, #1342177280
 134 0016 01D0     		beq	.L10
 135              	.LVL3:
 136              	.L7:
  66:Core/Src/usb_otg.c ****   {
  67:Core/Src/usb_otg.c ****   /* USER CODE BEGIN USB_OTG_FS_MspInit 0 */
  68:Core/Src/usb_otg.c **** 
  69:Core/Src/usb_otg.c ****   /* USER CODE END USB_OTG_FS_MspInit 0 */
  70:Core/Src/usb_otg.c **** 
  71:Core/Src/usb_otg.c ****     __HAL_RCC_GPIOA_CLK_ENABLE();
  72:Core/Src/usb_otg.c ****     /**USB_OTG_FS GPIO Configuration
  73:Core/Src/usb_otg.c ****     PA8     ------> USB_OTG_FS_SOF
  74:Core/Src/usb_otg.c ****     PA9     ------> USB_OTG_FS_VBUS
  75:Core/Src/usb_otg.c ****     PA10     ------> USB_OTG_FS_ID
  76:Core/Src/usb_otg.c ****     PA11     ------> USB_OTG_FS_DM
  77:Core/Src/usb_otg.c ****     PA12     ------> USB_OTG_FS_DP
  78:Core/Src/usb_otg.c ****     */
  79:Core/Src/usb_otg.c ****     GPIO_InitStruct.Pin = USB_SOF_Pin|USB_ID_Pin|USB_DM_Pin|USB_DP_Pin;
  80:Core/Src/usb_otg.c ****     GPIO_InitStruct.Mode = GPIO_MODE_AF_PP;
  81:Core/Src/usb_otg.c ****     GPIO_InitStruct.Pull = GPIO_NOPULL;
  82:Core/Src/usb_otg.c ****     GPIO_InitStruct.Speed = GPIO_SPEED_FREQ_VERY_HIGH;
  83:Core/Src/usb_otg.c ****     GPIO_InitStruct.Alternate = GPIO_AF10_OTG_FS;
  84:Core/Src/usb_otg.c ****     HAL_GPIO_Init(GPIOA, &GPIO_InitStruct);
  85:Core/Src/usb_otg.c **** 
  86:Core/Src/usb_otg.c ****     GPIO_InitStruct.Pin = USB_VBUS_Pin;
  87:Core/Src/usb_otg.c ****     GPIO_InitStruct.Mode = GPIO_MODE_INPUT;
  88:Core/Src/usb_otg.c ****     GPIO_InitStruct.Pull = GPIO_NOPULL;
  89:Core/Src/usb_otg.c ****     HAL_GPIO_Init(USB_VBUS_GPIO_Port, &GPIO_InitStruct);
  90:Core/Src/usb_otg.c **** 
  91:Core/Src/usb_otg.c ****     /* USB_OTG_FS clock enable */
  92:Core/Src/usb_otg.c ****     __HAL_RCC_USB_OTG_FS_CLK_ENABLE();
  93:Core/Src/usb_otg.c ****   /* USER CODE BEGIN USB_OTG_FS_MspInit 1 */
  94:Core/Src/usb_otg.c **** 
ARM GAS  C:\Users\Adam\AppData\Local\Temp\cc5HEZBF.s 			page 5


  95:Core/Src/usb_otg.c ****   /* USER CODE END USB_OTG_FS_MspInit 1 */
  96:Core/Src/usb_otg.c ****   }
  97:Core/Src/usb_otg.c **** }
 137              		.loc 1 97 1 view .LVU34
 138 0018 08B0     		add	sp, sp, #32
 139              	.LCFI3:
 140              		.cfi_remember_state
 141              		.cfi_def_cfa_offset 16
 142              		@ sp needed
 143 001a 70BD     		pop	{r4, r5, r6, pc}
 144              	.LVL4:
 145              	.L10:
 146              	.LCFI4:
 147              		.cfi_restore_state
  71:Core/Src/usb_otg.c ****     /**USB_OTG_FS GPIO Configuration
 148              		.loc 1 71 5 is_stmt 1 view .LVU35
 149              	.LBB2:
  71:Core/Src/usb_otg.c ****     /**USB_OTG_FS GPIO Configuration
 150              		.loc 1 71 5 view .LVU36
 151 001c 0025     		movs	r5, #0
 152 001e 0195     		str	r5, [sp, #4]
  71:Core/Src/usb_otg.c ****     /**USB_OTG_FS GPIO Configuration
 153              		.loc 1 71 5 view .LVU37
 154 0020 174C     		ldr	r4, .L11
 155 0022 236B     		ldr	r3, [r4, #48]
 156 0024 43F00103 		orr	r3, r3, #1
 157 0028 2363     		str	r3, [r4, #48]
  71:Core/Src/usb_otg.c ****     /**USB_OTG_FS GPIO Configuration
 158              		.loc 1 71 5 view .LVU38
 159 002a 236B     		ldr	r3, [r4, #48]
 160 002c 03F00103 		and	r3, r3, #1
 161 0030 0193     		str	r3, [sp, #4]
  71:Core/Src/usb_otg.c ****     /**USB_OTG_FS GPIO Configuration
 162              		.loc 1 71 5 view .LVU39
 163 0032 019B     		ldr	r3, [sp, #4]
 164              	.LBE2:
  71:Core/Src/usb_otg.c ****     /**USB_OTG_FS GPIO Configuration
 165              		.loc 1 71 5 view .LVU40
  79:Core/Src/usb_otg.c ****     GPIO_InitStruct.Mode = GPIO_MODE_AF_PP;
 166              		.loc 1 79 5 view .LVU41
  79:Core/Src/usb_otg.c ****     GPIO_InitStruct.Mode = GPIO_MODE_AF_PP;
 167              		.loc 1 79 25 is_stmt 0 view .LVU42
 168 0034 4FF4E853 		mov	r3, #7424
 169 0038 0393     		str	r3, [sp, #12]
  80:Core/Src/usb_otg.c ****     GPIO_InitStruct.Pull = GPIO_NOPULL;
 170              		.loc 1 80 5 is_stmt 1 view .LVU43
  80:Core/Src/usb_otg.c ****     GPIO_InitStruct.Pull = GPIO_NOPULL;
 171              		.loc 1 80 26 is_stmt 0 view .LVU44
 172 003a 0223     		movs	r3, #2
 173 003c 0493     		str	r3, [sp, #16]
  81:Core/Src/usb_otg.c ****     GPIO_InitStruct.Speed = GPIO_SPEED_FREQ_VERY_HIGH;
 174              		.loc 1 81 5 is_stmt 1 view .LVU45
  82:Core/Src/usb_otg.c ****     GPIO_InitStruct.Alternate = GPIO_AF10_OTG_FS;
 175              		.loc 1 82 5 view .LVU46
  82:Core/Src/usb_otg.c ****     GPIO_InitStruct.Alternate = GPIO_AF10_OTG_FS;
 176              		.loc 1 82 27 is_stmt 0 view .LVU47
 177 003e 0323     		movs	r3, #3
ARM GAS  C:\Users\Adam\AppData\Local\Temp\cc5HEZBF.s 			page 6


 178 0040 0693     		str	r3, [sp, #24]
  83:Core/Src/usb_otg.c ****     HAL_GPIO_Init(GPIOA, &GPIO_InitStruct);
 179              		.loc 1 83 5 is_stmt 1 view .LVU48
  83:Core/Src/usb_otg.c ****     HAL_GPIO_Init(GPIOA, &GPIO_InitStruct);
 180              		.loc 1 83 31 is_stmt 0 view .LVU49
 181 0042 0A23     		movs	r3, #10
 182 0044 0793     		str	r3, [sp, #28]
  84:Core/Src/usb_otg.c **** 
 183              		.loc 1 84 5 is_stmt 1 view .LVU50
 184 0046 0F4E     		ldr	r6, .L11+4
 185 0048 03A9     		add	r1, sp, #12
 186 004a 3046     		mov	r0, r6
 187              	.LVL5:
  84:Core/Src/usb_otg.c **** 
 188              		.loc 1 84 5 is_stmt 0 view .LVU51
 189 004c FFF7FEFF 		bl	HAL_GPIO_Init
 190              	.LVL6:
  86:Core/Src/usb_otg.c ****     GPIO_InitStruct.Mode = GPIO_MODE_INPUT;
 191              		.loc 1 86 5 is_stmt 1 view .LVU52
  86:Core/Src/usb_otg.c ****     GPIO_InitStruct.Mode = GPIO_MODE_INPUT;
 192              		.loc 1 86 25 is_stmt 0 view .LVU53
 193 0050 4FF40073 		mov	r3, #512
 194 0054 0393     		str	r3, [sp, #12]
  87:Core/Src/usb_otg.c ****     GPIO_InitStruct.Pull = GPIO_NOPULL;
 195              		.loc 1 87 5 is_stmt 1 view .LVU54
  87:Core/Src/usb_otg.c ****     GPIO_InitStruct.Pull = GPIO_NOPULL;
 196              		.loc 1 87 26 is_stmt 0 view .LVU55
 197 0056 0495     		str	r5, [sp, #16]
  88:Core/Src/usb_otg.c ****     HAL_GPIO_Init(USB_VBUS_GPIO_Port, &GPIO_InitStruct);
 198              		.loc 1 88 5 is_stmt 1 view .LVU56
  88:Core/Src/usb_otg.c ****     HAL_GPIO_Init(USB_VBUS_GPIO_Port, &GPIO_InitStruct);
 199              		.loc 1 88 26 is_stmt 0 view .LVU57
 200 0058 0595     		str	r5, [sp, #20]
  89:Core/Src/usb_otg.c **** 
 201              		.loc 1 89 5 is_stmt 1 view .LVU58
 202 005a 03A9     		add	r1, sp, #12
 203 005c 3046     		mov	r0, r6
 204 005e FFF7FEFF 		bl	HAL_GPIO_Init
 205              	.LVL7:
  92:Core/Src/usb_otg.c ****   /* USER CODE BEGIN USB_OTG_FS_MspInit 1 */
 206              		.loc 1 92 5 view .LVU59
  92:Core/Src/usb_otg.c ****   /* USER CODE BEGIN USB_OTG_FS_MspInit 1 */
 207              		.loc 1 92 5 view .LVU60
 208 0062 636B     		ldr	r3, [r4, #52]
 209 0064 43F08003 		orr	r3, r3, #128
 210 0068 6363     		str	r3, [r4, #52]
  92:Core/Src/usb_otg.c ****   /* USER CODE BEGIN USB_OTG_FS_MspInit 1 */
 211              		.loc 1 92 5 view .LVU61
 212              	.LBB3:
  92:Core/Src/usb_otg.c ****   /* USER CODE BEGIN USB_OTG_FS_MspInit 1 */
 213              		.loc 1 92 5 view .LVU62
 214 006a 0295     		str	r5, [sp, #8]
  92:Core/Src/usb_otg.c ****   /* USER CODE BEGIN USB_OTG_FS_MspInit 1 */
 215              		.loc 1 92 5 view .LVU63
 216 006c 636C     		ldr	r3, [r4, #68]
 217 006e 43F48043 		orr	r3, r3, #16384
 218 0072 6364     		str	r3, [r4, #68]
ARM GAS  C:\Users\Adam\AppData\Local\Temp\cc5HEZBF.s 			page 7


  92:Core/Src/usb_otg.c ****   /* USER CODE BEGIN USB_OTG_FS_MspInit 1 */
 219              		.loc 1 92 5 view .LVU64
 220 0074 636C     		ldr	r3, [r4, #68]
 221 0076 03F48043 		and	r3, r3, #16384
 222 007a 0293     		str	r3, [sp, #8]
  92:Core/Src/usb_otg.c ****   /* USER CODE BEGIN USB_OTG_FS_MspInit 1 */
 223              		.loc 1 92 5 view .LVU65
 224 007c 029B     		ldr	r3, [sp, #8]
 225              	.LBE3:
  92:Core/Src/usb_otg.c ****   /* USER CODE BEGIN USB_OTG_FS_MspInit 1 */
 226              		.loc 1 92 5 view .LVU66
  92:Core/Src/usb_otg.c ****   /* USER CODE BEGIN USB_OTG_FS_MspInit 1 */
 227              		.loc 1 92 5 view .LVU67
 228              		.loc 1 97 1 is_stmt 0 view .LVU68
 229 007e CBE7     		b	.L7
 230              	.L12:
 231              		.align	2
 232              	.L11:
 233 0080 00380240 		.word	1073887232
 234 0084 00000240 		.word	1073872896
 235              		.cfi_endproc
 236              	.LFE131:
 238              		.section	.text.HAL_PCD_MspDeInit,"ax",%progbits
 239              		.align	1
 240              		.global	HAL_PCD_MspDeInit
 241              		.syntax unified
 242              		.thumb
 243              		.thumb_func
 245              	HAL_PCD_MspDeInit:
 246              	.LVL8:
 247              	.LFB132:
  98:Core/Src/usb_otg.c **** 
  99:Core/Src/usb_otg.c **** void HAL_PCD_MspDeInit(PCD_HandleTypeDef* pcdHandle)
 100:Core/Src/usb_otg.c **** {
 248              		.loc 1 100 1 is_stmt 1 view -0
 249              		.cfi_startproc
 250              		@ args = 0, pretend = 0, frame = 0
 251              		@ frame_needed = 0, uses_anonymous_args = 0
 252              		.loc 1 100 1 is_stmt 0 view .LVU70
 253 0000 08B5     		push	{r3, lr}
 254              	.LCFI5:
 255              		.cfi_def_cfa_offset 8
 256              		.cfi_offset 3, -8
 257              		.cfi_offset 14, -4
 101:Core/Src/usb_otg.c **** 
 102:Core/Src/usb_otg.c ****   if(pcdHandle->Instance==USB_OTG_FS)
 258              		.loc 1 102 3 is_stmt 1 view .LVU71
 259              		.loc 1 102 15 is_stmt 0 view .LVU72
 260 0002 0368     		ldr	r3, [r0]
 261              		.loc 1 102 5 view .LVU73
 262 0004 B3F1A04F 		cmp	r3, #1342177280
 263 0008 00D0     		beq	.L16
 264              	.LVL9:
 265              	.L13:
 103:Core/Src/usb_otg.c ****   {
 104:Core/Src/usb_otg.c ****   /* USER CODE BEGIN USB_OTG_FS_MspDeInit 0 */
 105:Core/Src/usb_otg.c **** 
ARM GAS  C:\Users\Adam\AppData\Local\Temp\cc5HEZBF.s 			page 8


 106:Core/Src/usb_otg.c ****   /* USER CODE END USB_OTG_FS_MspDeInit 0 */
 107:Core/Src/usb_otg.c ****     /* Peripheral clock disable */
 108:Core/Src/usb_otg.c ****     __HAL_RCC_USB_OTG_FS_CLK_DISABLE();
 109:Core/Src/usb_otg.c **** 
 110:Core/Src/usb_otg.c ****     /**USB_OTG_FS GPIO Configuration
 111:Core/Src/usb_otg.c ****     PA8     ------> USB_OTG_FS_SOF
 112:Core/Src/usb_otg.c ****     PA9     ------> USB_OTG_FS_VBUS
 113:Core/Src/usb_otg.c ****     PA10     ------> USB_OTG_FS_ID
 114:Core/Src/usb_otg.c ****     PA11     ------> USB_OTG_FS_DM
 115:Core/Src/usb_otg.c ****     PA12     ------> USB_OTG_FS_DP
 116:Core/Src/usb_otg.c ****     */
 117:Core/Src/usb_otg.c ****     HAL_GPIO_DeInit(GPIOA, USB_SOF_Pin|USB_VBUS_Pin|USB_ID_Pin|USB_DM_Pin
 118:Core/Src/usb_otg.c ****                           |USB_DP_Pin);
 119:Core/Src/usb_otg.c **** 
 120:Core/Src/usb_otg.c ****   /* USER CODE BEGIN USB_OTG_FS_MspDeInit 1 */
 121:Core/Src/usb_otg.c **** 
 122:Core/Src/usb_otg.c ****   /* USER CODE END USB_OTG_FS_MspDeInit 1 */
 123:Core/Src/usb_otg.c ****   }
 124:Core/Src/usb_otg.c **** }
 266              		.loc 1 124 1 view .LVU74
 267 000a 08BD     		pop	{r3, pc}
 268              	.LVL10:
 269              	.L16:
 108:Core/Src/usb_otg.c **** 
 270              		.loc 1 108 5 is_stmt 1 view .LVU75
 271 000c 054A     		ldr	r2, .L17
 272 000e 536B     		ldr	r3, [r2, #52]
 273 0010 23F08003 		bic	r3, r3, #128
 274 0014 5363     		str	r3, [r2, #52]
 117:Core/Src/usb_otg.c ****                           |USB_DP_Pin);
 275              		.loc 1 117 5 view .LVU76
 276 0016 4FF4F851 		mov	r1, #7936
 277 001a 0348     		ldr	r0, .L17+4
 278              	.LVL11:
 117:Core/Src/usb_otg.c ****                           |USB_DP_Pin);
 279              		.loc 1 117 5 is_stmt 0 view .LVU77
 280 001c FFF7FEFF 		bl	HAL_GPIO_DeInit
 281              	.LVL12:
 282              		.loc 1 124 1 view .LVU78
 283 0020 F3E7     		b	.L13
 284              	.L18:
 285 0022 00BF     		.align	2
 286              	.L17:
 287 0024 00380240 		.word	1073887232
 288 0028 00000240 		.word	1073872896
 289              		.cfi_endproc
 290              	.LFE132:
 292              		.global	hpcd_USB_OTG_FS
 293              		.section	.bss.hpcd_USB_OTG_FS,"aw",%nobits
 294              		.align	2
 297              	hpcd_USB_OTG_FS:
 298 0000 00000000 		.space	1292
 298      00000000 
 298      00000000 
 298      00000000 
 298      00000000 
 299              		.text
ARM GAS  C:\Users\Adam\AppData\Local\Temp\cc5HEZBF.s 			page 9


 300              	.Letext0:
 301              		.file 2 "c:\\tools_stm\\arm-gcc\\arm-none-eabi\\include\\machine\\_default_types.h"
 302              		.file 3 "c:\\tools_stm\\arm-gcc\\arm-none-eabi\\include\\sys\\_stdint.h"
 303              		.file 4 "Drivers/CMSIS/Device/ST/STM32F4xx/Include/stm32f429xx.h"
 304              		.file 5 "Drivers/CMSIS/Device/ST/STM32F4xx/Include/stm32f4xx.h"
 305              		.file 6 "Drivers/STM32F4xx_HAL_Driver/Inc/stm32f4xx_hal_def.h"
 306              		.file 7 "Drivers/STM32F4xx_HAL_Driver/Inc/stm32f4xx_hal_gpio.h"
 307              		.file 8 "Drivers/STM32F4xx_HAL_Driver/Inc/stm32f4xx_ll_usb.h"
 308              		.file 9 "Drivers/STM32F4xx_HAL_Driver/Inc/stm32f4xx_hal_pcd.h"
 309              		.file 10 "Core/Inc/usb_otg.h"
 310              		.file 11 "Core/Inc/main.h"
ARM GAS  C:\Users\Adam\AppData\Local\Temp\cc5HEZBF.s 			page 10

